Certificate:
    Data:
        Version: 3 (0x2)
        Serial Number:
            b3:ba:7f:5e:a5:8e:46:4b:a2:3e:8b:de:b6:79:99:ac
        Signature Algorithm: sha256WithRSAEncryption
        Issuer: CN=yes
        Validity
            Not Before: Mar 28 08:27:36 2024 GMT
            Not After : Jul  1 08:27:36 2026 GMT
        Subject: CN=client
        Subject Public Key Info:
            Public Key Algorithm: rsaEncryption
                RSA Public-Key: (2048 bit)
                Modulus:
                    00:bf:a7:eb:aa:12:26:3c:f4:d8:b6:78:d1:04:53:
                    47:03:68:c2:11:21:d6:3d:f0:78:df:a5:df:8f:18:
                    25:5d:88:61:b3:58:c4:f5:f9:fb:96:eb:dd:60:71:
                    a9:9d:88:18:fc:2d:1b:f5:79:41:a0:c8:c5:81:3e:
                    0f:8b:bd:24:6b:7b:d8:40:7c:04:d4:d7:21:fb:c8:
                    f2:c0:be:02:fa:92:ee:f0:5f:31:21:f3:cb:2d:4c:
                    f1:14:65:4f:f8:e9:5e:88:e5:ed:46:56:fa:1f:72:
                    90:94:9c:64:8d:71:c9:69:27:2b:fa:24:1c:fe:5d:
                    a7:23:b4:96:52:42:33:d7:5b:fa:2f:58:d8:ae:14:
                    f8:fe:d1:ab:dc:70:54:5a:bc:8f:59:02:5f:73:4f:
                    14:f5:5d:02:83:22:ab:fc:47:3d:54:5d:7a:07:71:
                    9d:b7:f9:97:ef:10:46:88:bf:b8:d5:23:9c:ba:36:
                    a4:dd:c5:c7:f4:1a:2a:63:29:43:88:01:ac:11:89:
                    a4:fb:8f:7d:0d:e3:03:ac:2a:8a:31:32:89:49:e8:
                    06:53:66:95:4e:55:75:ac:ff:ff:23:46:ba:1d:5e:
                    8f:f0:cd:ef:e1:de:d5:d2:d6:e9:cc:43:48:bd:db:
                    0e:72:01:c5:5a:bf:19:a1:47:94:23:fa:b5:60:0d:
                    7a:19
                Exponent: 65537 (0x10001)
        X509v3 extensions:
            X509v3 Basic Constraints: 
                CA:FALSE
            X509v3 Subject Key Identifier: 
                30:CF:45:F7:5F:F6:30:0E:CB:F6:1B:3A:9F:22:82:9E:42:6D:A5:C6
            X509v3 Authority Key Identifier: 
                keyid:08:4B:72:95:AF:94:EC:BD:98:60:8B:A0:DB:9B:37:CC:9C:B5:59:6C
                DirName:/CN=yes
                serial:56:50:52:0F:44:93:34:26:31:40:1B:43:4D:9D:8F:82:64:57:6F:A7

            X509v3 Extended Key Usage: 
                TLS Web Client Authentication
            X509v3 Key Usage: 
                Digital Signature
    Signature Algorithm: sha256WithRSAEncryption
         87:99:0d:90:ba:bc:67:29:50:9a:61:21:5b:60:d2:f0:0b:8b:
         ea:c5:13:b2:c1:38:e8:88:ef:c1:17:b2:68:1e:65:23:99:b5:
         a0:85:11:b4:3d:37:df:28:1b:5f:e4:8d:d4:1c:23:c1:1d:c6:
         5a:b5:da:cf:65:a9:77:d7:19:a9:11:b6:66:21:e8:c2:bb:01:
         be:e0:1c:9b:47:3f:1b:7c:fc:85:57:01:83:64:63:85:f8:36:
         c2:8a:db:3f:04:78:f2:60:35:d2:fd:8c:ba:7e:41:33:e3:d5:
         bc:9e:c9:14:48:05:4c:a2:87:f2:52:cc:06:8d:53:30:ed:02:
         e4:c6:2b:b3:85:6d:a9:65:be:e5:1b:0e:cd:b6:9d:0f:48:a7:
         a4:0f:30:7d:78:09:3b:28:01:a7:12:7a:12:8c:88:23:b3:46:
         19:ce:49:4f:ef:86:b6:59:53:62:9a:26:91:b3:d4:24:1b:fa:
         5b:ab:e1:54:7c:75:84:f4:47:24:37:3f:c2:48:a5:f1:ae:d9:
         1a:82:77:dc:09:48:3c:4c:87:e3:e5:b9:ff:d0:ad:b9:66:28:
         8b:28:39:2b:80:32:8a:f0:d0:61:71:42:58:15:3e:7b:a1:90:
         b6:70:39:be:84:ee:5c:b2:d5:87:32:a3:29:85:d0:e3:fe:c1:
         d9:8f:cc:0e
-----BEGIN CERTIFICATE-----
MIIDRTCCAi2gAwIBAgIRALO6f16ljkZLoj6L3rZ5mawwDQYJKoZIhvcNAQELBQAw
DjEMMAoGA1UEAwwDeWVzMB4XDTI0MDMyODA4MjczNloXDTI2MDcwMTA4MjczNlow
ETEPMA0GA1UEAwwGY2xpZW50MIIBIjANBgkqhkiG9w0BAQEFAAOCAQ8AMIIBCgKC
AQEAv6frqhImPPTYtnjRBFNHA2jCESHWPfB436XfjxglXYhhs1jE9fn7luvdYHGp
nYgY/C0b9XlBoMjFgT4Pi70ka3vYQHwE1Nch+8jywL4C+pLu8F8xIfPLLUzxFGVP
+OleiOXtRlb6H3KQlJxkjXHJaScr+iQc/l2nI7SWUkIz11v6L1jYrhT4/tGr3HBU
WryPWQJfc08U9V0CgyKr/Ec9VF16B3Gdt/mX7xBGiL+41SOcujak3cXH9BoqYylD
iAGsEYmk+499DeMDrCqKMTKJSegGU2aVTlV1rP//I0a6HV6P8M3v4d7V0tbpzENI
vdsOcgHFWr8ZoUeUI/q1YA16GQIDAQABo4GaMIGXMAkGA1UdEwQCMAAwHQYDVR0O
BBYEFDDPRfdf9jAOy/YbOp8igp5CbaXGMEkGA1UdIwRCMECAFAhLcpWvlOy9mGCL
oNubN8yctVlsoRKkEDAOMQwwCgYDVQQDDAN5ZXOCFFZQUg9EkzQmMUAbQ02dj4Jk
V2+nMBMGA1UdJQQMMAoGCCsGAQUFBwMCMAsGA1UdDwQEAwIHgDANBgkqhkiG9w0B
AQsFAAOCAQEAh5kNkLq8ZylQmmEhW2DS8AuL6sUTssE46IjvwReyaB5lI5m1oIUR
tD033ygbX+SN1BwjwR3GWrXaz2Wpd9cZqRG2ZiHowrsBvuAcm0c/G3z8hVcBg2Rj
hfg2worbPwR48mA10v2Mun5BM+PVvJ7JFEgFTKKH8lLMBo1TMO0C5MYrs4VtqWW+
5RsOzbadD0inpA8wfXgJOygBpxJ6EoyII7NGGc5JT++GtllTYpomkbPUJBv6W6vh
VHx1hPRHJDc/wkil8a7ZGoJ33AlIPEyH4+W5/9CtuWYoiyg5K4AyivDQYXFCWBU+
e6GQtnA5voTuXLLVhzKjKYXQ4/7B2Y/MDg==
-----END CERTIFICATE-----
