Certificate:
    Data:
        Version: 3 (0x2)
        Serial Number:
            bf:d1:f8:4f:b2:14:99:8e:9c:3e:a4:b7:cb:c4:db:cf
        Signature Algorithm: sha256WithRSAEncryption
        Issuer: CN=yes
        Validity
            Not Before: Mar 28 08:24:48 2024 GMT
            Not After : Jul  1 08:24:48 2026 GMT
        Subject: CN=rasvpn
        Subject Public Key Info:
            Public Key Algorithm: rsaEncryption
                RSA Public-Key: (2048 bit)
                Modulus:
                    00:b6:34:16:26:e6:4a:b7:65:32:f3:2e:d2:52:cc:
                    c7:c9:0b:6f:61:1a:0e:aa:3f:e3:d5:86:d2:b3:5c:
                    95:e3:a2:a9:9b:b0:ca:70:92:0e:61:8f:72:c7:d8:
                    a9:6c:30:ac:43:22:38:e8:4e:36:09:5e:e6:02:06:
                    11:32:33:c7:c1:ba:be:2a:dd:f4:c7:90:69:49:7b:
                    69:f9:e0:f8:16:02:f7:69:d5:9d:c3:a5:46:7d:e5:
                    88:fa:df:0a:f3:5e:43:44:5e:ec:99:b5:ed:13:31:
                    ee:f3:56:7a:d7:f9:3a:16:14:8f:0c:e7:04:14:52:
                    56:da:d3:b2:b6:6a:5f:30:a4:29:c6:ee:4d:2d:fb:
                    ba:97:bb:83:a3:20:7b:fe:98:dd:62:04:a0:f0:a2:
                    d9:75:86:24:25:90:62:bd:85:29:ff:68:4d:b1:ca:
                    f6:c8:8b:65:3f:9f:07:83:be:01:b4:12:77:cc:17:
                    26:34:31:c8:6d:ff:04:af:cf:97:89:eb:57:06:35:
                    32:59:40:20:df:e0:58:45:4b:36:16:5f:a0:ee:50:
                    ad:d6:f6:6f:48:fd:61:4e:6b:55:74:77:7f:1c:48:
                    a2:0b:bb:e3:38:8f:b4:a3:0f:cc:c1:92:3e:38:51:
                    25:ed:8d:8b:68:18:57:f5:c4:9c:4a:e3:3e:99:c7:
                    5a:5b
                Exponent: 65537 (0x10001)
        X509v3 extensions:
            X509v3 Basic Constraints: 
                CA:FALSE
            X509v3 Subject Key Identifier: 
                DF:22:A2:78:38:97:72:69:35:FC:84:83:A5:B9:3F:5F:CB:DE:4D:52
            X509v3 Authority Key Identifier: 
                keyid:08:4B:72:95:AF:94:EC:BD:98:60:8B:A0:DB:9B:37:CC:9C:B5:59:6C
                DirName:/CN=yes
                serial:56:50:52:0F:44:93:34:26:31:40:1B:43:4D:9D:8F:82:64:57:6F:A7

            X509v3 Extended Key Usage: 
                TLS Web Server Authentication
            X509v3 Key Usage: 
                Digital Signature, Key Encipherment
            X509v3 Subject Alternative Name: 
                DNS:rasvpn
    Signature Algorithm: sha256WithRSAEncryption
         a8:8f:2c:1b:65:bd:43:e1:67:fe:d1:88:11:19:1a:d2:db:bc:
         9e:fc:8b:65:4c:cc:7a:33:cf:cc:db:fc:87:10:c9:8c:89:da:
         b0:62:4f:18:2c:30:a7:6c:82:a1:29:d6:d5:2a:39:44:ea:56:
         74:ca:be:b3:9f:ab:b5:9f:b6:08:1e:dc:0b:14:12:ba:af:d7:
         71:ae:14:f0:71:ba:a0:f0:75:69:e1:8b:55:69:4d:e4:2c:b3:
         67:c5:50:82:4a:53:ea:f3:d2:af:d4:2c:d5:19:04:ff:fb:ac:
         e5:7d:22:76:7d:7d:f5:57:b0:23:f6:d0:bf:e3:fe:de:26:3a:
         df:d0:0a:d1:b7:f0:a8:3f:7c:09:31:bd:e4:11:c7:f2:c1:e0:
         a3:08:e3:e7:1b:81:e7:4c:51:89:aa:d7:f1:bc:ad:14:ca:4d:
         28:47:9b:70:20:70:19:b6:62:87:ea:c4:de:27:0f:a2:df:bd:
         19:5c:d2:6c:41:fd:20:49:66:0a:26:a2:68:5f:99:d9:98:99:
         cf:1d:8f:a1:2f:7d:c1:ee:7f:06:fd:fe:11:0e:49:e2:30:0a:
         0a:9f:76:79:8d:a7:c0:a5:d2:f6:9c:b3:6f:a0:73:fe:87:76:
         5a:6e:39:7f:e7:89:04:14:8f:27:9f:89:54:81:2e:45:dd:c5:
         8c:ac:b0:07
-----BEGIN CERTIFICATE-----
MIIDWDCCAkCgAwIBAgIRAL/R+E+yFJmOnD6kt8vE288wDQYJKoZIhvcNAQELBQAw
DjEMMAoGA1UEAwwDeWVzMB4XDTI0MDMyODA4MjQ0OFoXDTI2MDcwMTA4MjQ0OFow
ETEPMA0GA1UEAwwGcmFzdnBuMIIBIjANBgkqhkiG9w0BAQEFAAOCAQ8AMIIBCgKC
AQEAtjQWJuZKt2Uy8y7SUszHyQtvYRoOqj/j1YbSs1yV46Kpm7DKcJIOYY9yx9ip
bDCsQyI46E42CV7mAgYRMjPHwbq+Kt30x5BpSXtp+eD4FgL3adWdw6VGfeWI+t8K
815DRF7smbXtEzHu81Z61/k6FhSPDOcEFFJW2tOytmpfMKQpxu5NLfu6l7uDoyB7
/pjdYgSg8KLZdYYkJZBivYUp/2hNscr2yItlP58Hg74BtBJ3zBcmNDHIbf8Er8+X
ietXBjUyWUAg3+BYRUs2Fl+g7lCt1vZvSP1hTmtVdHd/HEiiC7vjOI+0ow/MwZI+
OFEl7Y2LaBhX9cScSuM+mcdaWwIDAQABo4GtMIGqMAkGA1UdEwQCMAAwHQYDVR0O
BBYEFN8iong4l3JpNfyEg6W5P1/L3k1SMEkGA1UdIwRCMECAFAhLcpWvlOy9mGCL
oNubN8yctVlsoRKkEDAOMQwwCgYDVQQDDAN5ZXOCFFZQUg9EkzQmMUAbQ02dj4Jk
V2+nMBMGA1UdJQQMMAoGCCsGAQUFBwMBMAsGA1UdDwQEAwIFoDARBgNVHREECjAI
ggZyYXN2cG4wDQYJKoZIhvcNAQELBQADggEBAKiPLBtlvUPhZ/7RiBEZGtLbvJ78
i2VMzHozz8zb/IcQyYyJ2rBiTxgsMKdsgqEp1tUqOUTqVnTKvrOfq7Wftgge3AsU
Erqv13GuFPBxuqDwdWnhi1VpTeQss2fFUIJKU+rz0q/ULNUZBP/7rOV9InZ9ffVX
sCP20L/j/t4mOt/QCtG38Kg/fAkxveQRx/LB4KMI4+cbgedMUYmq1/G8rRTKTShH
m3AgcBm2YofqxN4nD6LfvRlc0mxB/SBJZgomomhfmdmYmc8dj6EvfcHufwb9/hEO
SeIwCgqfdnmNp8Cl0vacs2+gc/6HdlpuOX/niQQUjyefiVSBLkXdxYyssAc=
-----END CERTIFICATE-----
